(dp0
S'keywords'
p1
(dp2
Vall
p3
(lp4
S'/Users/benmills/Dropbox/notes/tech-pitch'
p5
asVlack
p6
(lp7
g5
asVskim
p8
(lp9
S'/Users/benmills/Dropbox/notes/appapp.txt'
p10
asVgo
p11
(lp12
g5
asVhate
p13
(lp14
g5
asVissues
p15
(lp16
g5
asVpoorly
p17
(lp18
g5
asVto
p19
(lp20
g10
ag5
aS'/Users/benmills/Dropbox/notes/todo.otl'
p21
aS'/Users/benmills/Dropbox/notes/tolearn.otl'
p22
asVfoursquare
p23
(lp24
g5
asVjvm
p25
(lp26
g22
asVpresentation
p27
(lp28
g5
asVmerchant
p29
(lp30
g10
asVadvantage
p31
(lp32
g5
asVfar
p33
(lp34
g10
asVimporant
p35
(lp36
g5
asVfacebook
p37
(lp38
g5
asVcool
p39
(lp40
g5
aS'/Users/benmills/Dropbox/notes/inbox.otl'
p41
asVprod
p42
(lp43
g21
asVcompanies
p44
(lp45
g5
asVsolution
p46
(lp47
g5
asVtry
p48
(lp49
g10
asVitem
p50
(lp51
g5
asVvector
p52
(lp53
g22
asVteam
p54
(lp55
g10
ag21
asVbraintree
p56
(lp57
g10
asVtalked
p58
(lp59
g5
asVpms
p60
(lp61
g21
asVdealing
p62
(lp63
g5
asVsign
p64
(lp65
g5
asVnail
p66
(lp67
g5
asVtalks
p68
(lp69
g5
asVsecond
p70
(lp71
g10
asVdesign
p72
(lp73
g5
asVpass
p74
(lp75
g10
ag21
asVwhat
p76
(lp77
g10
ag5
asVchicago
p78
(lp79
g5
asVcurrent
p80
(lp81
g5
asVsequencial
p82
(lp83
g22
asVnew
p84
(lp85
g21
asVhash
p86
(lp87
g21
asVmodify
p88
(lp89
g10
asVhere
p90
(lp91
g10
asVlet
p92
(lp93
g10
asValong
p94
(lp95
g10
asVbox
p96
(lp97
g21
asVajax
p98
(lp99
g10
asVamount
p100
(lp101
g10
asVsocial
p102
(lp103
g5
asVapp
p104
(lp105
g10
ag5
asVmodifying
p106
(lp107
g10
asVtools
p108
(lp109
g10
asVmarket
p110
(lp111
g5
asVuse
p112
(lp113
g10
ag21
asVfrom
p114
(lp115
g10
asVworking
p116
(lp117
g10
asVtwo
p118
(lp119
g5
asVlive
p120
(lp121
g5
asVhttps
p122
(lp123
g10
asVmemory
p124
(lp125
g22
asVthemselves
p126
(lp127
g5
asVtoday
p128
(lp129
g10
asVstarted
p130
(lp131
g10
asVwarp
p132
(lp133
g21
asVaccount
p134
(lp135
g10
asVthis
p136
(lp137
g41
asVsetup
p138
(lp139
g21
asVwork
p140
(lp141
g5
ag41
asVcan
p142
(lp143
g5
asVlearn
p144
(lp145
g22
asVgeeky
p146
(lp147
g5
asVuploaded
p148
(lp149
g10
asVstream
p150
(lp151
g10
asVgive
p152
(lp153
g21
asVprocess
p154
(lp155
g10
asVsomething
p156
(lp157
g5
asVwant
p158
(lp159
g5
asVvalidated
p160
(lp161
g5
asVdatastore
p162
(lp163
g10
asVhuge
p164
(lp165
g5
asVeducational
p166
(lp167
g5
asVpurpose
p168
(lp169
g10
asVhow
p170
(lp171
g10
ag5
asVanswer
p172
(lp173
g5
asVinstead
p174
(lp175
g10
asVinformation
p176
(lp177
g5
asVapplications
p178
(lp179
g10
asVdesigned
p180
(lp181
g5
asVdata
p182
(lp183
g5
asVtypes
p184
(lp185
g5
asVshort
p186
(lp187
g5
asVdevs
p188
(lp189
g21
asVso
p190
(lp191
g10
ag41
asVegg
p192
(lp193
g5
asVtalk
p194
(lp195
g10
asVbitmapped
p196
(lp197
g22
asVfeedback
p198
(lp199
g10
asVover
p200
(lp201
g5
asVtrade
p202
(lp203
g5
asVbrain
p204
(lp205
g21
asVbefore
p206
(lp207
g5
asVcoffeescript
p208
(lp209
g10
asVjim
p210
(lp211
g21
asVactually
p212
(lp213
g5
asVforms
p214
(lp215
g10
asVeasier
p216
(lp217
g10
asVinstantly
p218
(lp219
g5
asVeventually
p220
(lp221
g10
asVthem
p222
(lp223
g10
asVgood
p224
(lp225
g10
ag5
asVauth
p226
(lp227
g21
asVscaling
p228
(lp229
g10
asVthey
p230
(lp231
g5
asVnot
p232
(lp233
g5
ag21
asVbullshit
p234
(lp235
g5
asVhuddle
p236
(lp237
g5
asVedit
p238
(lp239
g5
asValways
p240
(lp241
g10
asVdidn
p242
(lp243
g5
asVslide
p244
(lp245
g5
asVside
p246
(lp247
g10
asVassociative
p248
(lp249
g22
asVeveryone
p250
(lp251
g21
asVpresetaion
p252
(lp253
g5
asVdoing
p254
(lp255
g5
asVlist
p256
(lp257
g5
asVidea
p258
(lp259
g5
asVbooks
p260
(lp261
g5
asVexpect
p262
(lp263
g10
asVdoug
p264
(lp265
g21
asVour
p266
(lp267
g10
asVtodo
p268
(lp269
g21
asVout
p270
(lp271
g10
ag41
asVmerchants
p272
(lp273
g10
asVlooking
p274
(lp275
g5
asVre
p276
(lp277
g10
asVred
p278
(lp279
g22
asVshows
p280
(lp281
g5
asV8l
p282
(lp283
g21
asVquite
p284
(lp285
g5
asVreason
p286
(lp287
g10
asVwanted
p288
(lp289
g10
asVgenerate
p290
(lp291
g21
asVkeep
p292
(lp293
g5
asVplace
p294
(lp295
g5
asVfirst
p296
(lp297
g5
asVinfo
p298
(lp299
g5
asValready
p300
(lp301
g5
asVrevenue
p302
(lp303
g5
asVfeel
p304
(lp305
g5
asVdone
p306
(lp307
g21
asVanother
p308
(lp309
g5
asVtomorrow
p310
(lp311
g10
asVrails
p312
(lp313
g10
asVstack
p314
(lp315
g10
asVtheir
p316
(lp317
g21
asVtoo
p318
(lp319
g5
asVreally
p320
(lp321
g5
asVstore
p322
(lp323
g10
asVthat
p324
(lp325
g10
ag5
asVtool
p326
(lp327
g5
asVslides
p328
(lp329
g5
asVgithub
p330
(lp331
g10
asVbecause
p332
(lp333
g5
asVben
p334
(lp335
g10
asVjen
p336
(lp337
g21
asVtree
p338
(lp339
g22
asVresoruce
p340
(lp341
g5
asVproject
p342
(lp343
g10
asVand
p344
(lp345
g10
ag5
asVhave
p346
(lp347
g10
ag5
asVneed
p348
(lp349
g5
asVseem
p350
(lp351
g5
asVany
p352
(lp353
g10
ag5
asVsell
p354
(lp355
g5
asVtransactional
p356
(lp357
g22
asVideas
p358
(lp359
g5
asValso
p360
(lp361
g10
asVtake
p362
(lp363
g41
asVadded
p364
(lp365
g10
asVunless
p366
(lp367
g10
asVnormal
p368
(lp369
g5
asVtrack
p370
(lp371
g5
asVwho
p372
(lp373
g5
asVplan
p374
(lp375
g5
asVdon
p376
(lp377
g5
asVmobile
p378
(lp379
g5
asVactionable
p380
(lp381
g5
asVcurrently
p382
(lp383
g10
asVrestraunts
p384
(lp385
g5
asVtext
p386
(lp387
g5
asVgrabio
p388
(lp389
g5
asVsolutions
p390
(lp391
g10
asVchicken
p392
(lp393
g5
asVnetworks
p394
(lp395
g5
asVhelp
p396
(lp397
g10
asVaccess
p398
(lp399
g21
asVslow
p400
(lp401
g10
asVbased
p402
(lp403
g5
asVjust
p404
(lp405
g5
asVshould
p406
(lp407
g10
asVfailed
p408
(lp409
g5
asVblack
p410
(lp411
g22
asVpersonality
p412
(lp413
g5
asVdo
p414
(lp415
g5
asVget
p416
(lp417
g10
ag21
asVhopefully
p418
(lp419
g10
asVoverall
p420
(lp421
g5
asVwords
p422
(lp423
g5
asVduring
p424
(lp425
g10
asVbad
p426
(lp427
g5
asVstuff
p428
(lp429
g5
ag21
asVwhere
p430
(lp431
g5
asVwiki
p432
(lp433
g21
asVtravis
p434
(lp435
g10
asVsee
p436
(lp437
g5
asVdecided
p438
(lp439
g10
asVcollege
p440
(lp441
g5
asVare
p442
(lp443
g10
ag5
asVassumtion
p444
(lp445
g5
asVlots
p446
(lp447
g5
asVseekers
p448
(lp449
g5
asVfinger
p450
(lp451
g22
asVprops
p452
(lp453
g5
asVemail
p454
(lp455
g5
asVdiscovery
p456
(lp457
g5
asVwe
p458
(lp459
g10
asVomg
p460
(lp461
g41
asVinitially
p462
(lp463
g10
asVjob
p464
(lp465
g5
asVboth
p466
(lp467
g5
asVbuzz
p468
(lp469
g5
asVlogin
p470
(lp471
g10
asVcom
p472
(lp473
g10
ag5
asVnearby
p474
(lp475
g5
asVci
p476
(lp477
g10
asVcl
p478
(lp479
g5
asVwhatever
p480
(lp481
g21
asVtrust
p482
(lp483
g5
asVbackend
p484
(lp485
g10
asVlifes
p486
(lp487
g5
asVpw
p488
(lp489
g21
asVbeen
p490
(lp491
g10
asVtrie
p492
(lp493
g22
asVbucketlist
p494
(lp495
g5
asVbasic
p496
(lp497
g5
asVbulk
p498
(lp499
g10
asVunderstand
p500
(lp501
g5
asVmulti
p502
(lp503
g10
asVlook
p504
(lp505
g5
asVpublicly
p506
(lp507
g10
asVthese
p508
(lp509
g21
asVwill
p510
(lp511
g10
ag41
asVve
p512
(lp513
g10
asVdemo
p514
(lp515
g5
asVis
p516
(lp517
g10
ag5
ag41
asVhighlighing
p518
(lp519
g5
asVit
p520
(lp521
g10
ag5
asVvs
p522
(lp523
g5
asVin
p524
(lp525
g10
ag5
asVweatherist
p526
(lp527
g5
asVtechnology
p528
(lp529
g10
asVif
p530
(lp531
g10
asVdifferent
p532
(lp533
g5
asVthings
p534
(lp535
g5
ag22
asVmake
p536
(lp537
g10
asVcraigslist
p538
(lp539
g5
asVcomplex
p540
(lp541
g10
asVspeaker
p542
(lp543
g5
asVhttp
p544
(lp545
g5
asVcreditble
p546
(lp547
g5
asVmoving
p548
(lp549
g10
asVuser
p550
(lp551
g5
asVvalidate
p552
(lp553
g10
asVautomagically
p554
(lp555
g5
asVrelies
p556
(lp557
g5
asVdreamchamps
p558
(lp559
g5
asVlocality
p560
(lp561
g22
asVperson
p562
(lp563
g5
asVclient
p564
(lp565
g10
asVcommand
p566
(lp567
g21
asVvery
p568
(lp569
g5
asVthe
p570
(lp571
g10
ag5
ag41
ag21
asVproposed
p572
(lp573
g10
asVheavily
p574
(lp575
g5
asVbitmap
p576
(lp577
g22
asVpaul
p578
(lp579
g10
asVstruct
p580
(lp581
g22
asVthinking
p582
(lp583
g10
asVsource
p584
(lp585
g5
asVadd
p586
(lp587
g10
asVinterested
p588
(lp589
g10
asVlocation
p590
(lp591
g5
asVaccouts
p592
(lp593
g21
asVhas
p594
(lp595
g21
asVbuild
p596
(lp597
g10
asVreal
p598
(lp599
g5
asVdepartment
p600
(lp601
g10
asVbiz
p602
(lp603
g5
asVusing
p604
(lp605
g5
asVshadow
p606
(lp607
g21
asVpassword
p608
(lp609
g21
asVtrash
p610
(lp611
g41
asVlike
p612
(lp613
g5
asVserver
p614
(lp615
g10
asVfacing
p616
(lp617
g10
asVmichael
p618
(lp619
g21
asVpage
p620
(lp621
g10
asVwww
p622
(lp623
g5
asVgoogle
p624
(lp625
g21
asVdeal
p626
(lp627
g10
asVpeople
p628
(lp629
g5
asVsome
p630
(lp631
g5
asVgevent
p632
(lp633
g22
asVexamples
p634
(lp635
g5
asVfor
p636
(lp637
g10
ag5
asVlegal
p638
(lp639
g5
asVmoderate
p640
(lp641
g10
asVbe
p642
(lp643
g10
asVrun
p644
(lp645
g10
asVpower
p646
(lp647
g5
asVcommunicate
p648
(lp649
g10
ag5
asVby
p650
(lp651
g10
asVon
p652
(lp653
g10
ag5
ag21
asVabout
p654
(lp655
g10
ag5
asVok
p656
(lp657
g5
asVof
p658
(lp659
g10
ag5
asVclojure
p660
(lp661
g22
asVor
p662
(lp663
g10
asVsoftware
p664
(lp665
g22
asVown
p666
(lp667
g10
asVdescibes
p668
(lp669
g5
asVservers
p670
(lp671
g10
asVright
p672
(lp673
g5
asVaccounts
p674
(lp675
g21
asVinbox
p676
(lp677
g41
asVyour
p678
(lp679
g5
asVcrowd
p680
(lp681
g5
asVthere
p682
(lp683
g10
asVapps
p684
(lp685
g10
asVlol
p686
(lp687
g41
asVrestraunt
p688
(lp689
g5
asVstart
p690
(lp691
g10
ag5
asVwordpress
p692
(lp693
g5
asVway
p694
(lp695
g5
asVwas
p696
(lp697
g5
asVassumes
p698
(lp699
g5
asVhappy
p700
(lp701
g10
asVfiles
p702
(lp703
g10
asVform
p704
(lp705
g10
asVbut
p706
(lp707
g5
asVauthenticator
p708
(lp709
g21
asVheap
p710
(lp711
g22
asVline
p712
(lp713
g10
asVtrying
p714
(lp715
g10
asVwith
p716
(lp717
g10
ag5
asVhe
p718
(lp719
g5
asVeditting
p720
(lp721
g5
asVapplying
p722
(lp723
g10
asVbuilds
p724
(lp725
g10
asVpitting
p726
(lp727
g5
asVwish
p728
(lp729
g5
asVproblem
p730
(lp731
g5
asVrelevent
p732
(lp733
g5
asVdefined
p734
(lp735
g5
asVdoesn
p736
(lp737
g5
asVas
p738
(lp739
g10
asVat
p740
(lp741
g10
asVlogo
p742
(lp743
g5
asVcheck
p744
(lp745
g5
asVfill
p746
(lp747
g10
asVno
p748
(lp749
g5
asVwhen
p750
(lp751
g5
asVvalid
p752
(lp753
g5
asVtest
p754
(lp755
g41
asVjenkins
p756
(lp757
g10
asVyou
p758
(lp759
g10
ag5
asVriak
p760
(lp761
g10
asVusers
p762
(lp763
g5
asVstudents
p764
(lp765
g5
asVproblems
p766
(lp767
g5
asVupdate
p768
(lp769
g10
asVfriends
p770
(lp771
g5
asVsides
p772
(lp773
g5
asVblogs
p774
(lp775
g5
asVtime
p776
(lp777
g5
asVstarting
p778
(lp779
g5
assS'files'
p780
(dp781
g10
F1321484495.0
sg5
F1322663502.0
sg41
F1317657845.0
sg21
F1319133953.0
sg22
F1316580124.0
ssS'version'
p782
I1
s.